target datalayout = "e-m:e-p270:32:32-p271:32:32-p272:64:64-i64:64-i128:128-f80:128-n8:16:32:64-S128"
target triple = "x86_64-pc-linux-gnu"

%struct.AVTXContext = type { i32, i32, ptr, ptr, ptr, ptr, [4 x ptr], i32, [4 x ptr], ptr, i32, i64, i32, float, double, ptr }

; Function Attrs: cold nounwind optsize uwtable
define internal i32 @ff_tx_mdct_inv_full_init_float_c(ptr noundef %0, ptr noundef %1, i64 noundef %2, ptr noundef %3, i32 noundef %4, i32 noundef %5, ptr noundef %6) #0 {
  %8 = alloca i32, align 4
  %9 = alloca ptr, align 8
  %10 = alloca ptr, align 8
  %11 = alloca i64, align 8
  %12 = alloca ptr, align 8
  %13 = alloca i32, align 4
  %14 = alloca i32, align 4
  %15 = alloca ptr, align 8
  %16 = alloca i32, align 4
  %17 = alloca i32, align 4
  store ptr %0, ptr %9, align 8, !tbaa !17
  store ptr %1, ptr %10, align 8, !tbaa !61
  store i64 %2, ptr %11, align 8, !tbaa !30
  store ptr %3, ptr %12, align 8, !tbaa !62
  store i32 %4, ptr %13, align 4, !tbaa !4
  store i32 %5, ptr %14, align 4, !tbaa !4
  store ptr %6, ptr %15, align 8, !tbaa !8
  call void @llvm.lifetime.start.p0(i64 4, ptr %16) #10
  %18 = load ptr, ptr %15, align 8, !tbaa !8
  %19 = load float, ptr %18, align 4, !tbaa !36
  %20 = fpext nsz float %19 to double
  %21 = load ptr, ptr %9, align 8, !tbaa !17
  %22 = getelementptr inbounds nuw %struct.AVTXContext, ptr %21, i32 0, i32 14
  store double %20, ptr %22, align 8, !tbaa !28
  %23 = load ptr, ptr %9, align 8, !tbaa !17
  %24 = getelementptr inbounds nuw %struct.AVTXContext, ptr %23, i32 0, i32 14
  %25 = load double, ptr %24, align 8, !tbaa !28
  %26 = fptrunc nsz double %25 to float
  %27 = load ptr, ptr %9, align 8, !tbaa !17
  %28 = getelementptr inbounds nuw %struct.AVTXContext, ptr %27, i32 0, i32 13
  store float %26, ptr %28, align 4, !tbaa !94
  %29 = load i64, ptr %11, align 8, !tbaa !30
  %30 = and i64 %29, -5
  store i64 %30, ptr %11, align 8, !tbaa !30
  %31 = load ptr, ptr %9, align 8, !tbaa !17
  %32 = load i64, ptr %11, align 8, !tbaa !30
  %33 = load i32, ptr %13, align 4, !tbaa !4
  %34 = load ptr, ptr %15, align 8, !tbaa !8
  %35 = call i32 @ff_tx_init_subtx(ptr noundef %31, i32 noundef 1, i64 noundef %32, ptr noundef null, i32 noundef %33, i32 noundef 1, ptr noundef %34)
  store i32 %35, ptr %16, align 4, !tbaa !4
  %36 = icmp ne i32 %35, 0
  br i1 %36, label %37, label %39

37:                                               ; preds = %7
  %38 = load i32, ptr %16, align 4, !tbaa !4
  store i32 %38, ptr %8, align 4
  store i32 1, ptr %17, align 4
  br label %40

39:                                               ; preds = %7
  store i32 0, ptr %8, align 4
  store i32 1, ptr %17, align 4
  br label %40

40:                                               ; preds = %39, %37
  call void @llvm.lifetime.end.p0(i64 4, ptr %16) #10
  %41 = load i32, ptr %8, align 4
  ret i32 %41
}