; Function Attrs: cold nounwind optsize uwtable
define internal i32 @ff_tx_mdct_inv_full_init_float_c(ptr noundef initializes((140, 152)) %0, ptr readnone captures(none) %1, i64 noundef %2, ptr readnone captures(none) %3, i32 noundef %4, i32 %5, ptr noundef %6) #0 {
  %8 = load float, ptr %6, align 4, !tbaa !27
  %9 = fpext nsz float %8 to double
  %10 = getelementptr inbounds nuw i8, ptr %0, i64 144
  store double %9, ptr %10, align 8, !tbaa !25
  %11 = getelementptr inbounds nuw i8, ptr %0, i64 140
  store float %8, ptr %11, align 4, !tbaa !83
  %12 = and i64 %2, -5
  %13 = tail call i32 @ff_tx_init_subtx(ptr noundef %0, i32 noundef 1, i64 noundef %12, ptr noundef null, i32 noundef %4, i32 noundef 1, ptr noundef nonnull %6) #16
  ret i32 %13
}